target datalayout = "e-m:e-p270:32:32-p271:32:32-p272:64:64-i64:64-i128:128-f80:128-n8:16:32:64-S128"
target triple = "x86_64-pc-linux-gnu"

; Function Attrs: nounwind uwtable
define hidden i32 @PEM_def_callback(ptr noundef %0, i32 noundef %1, i32 noundef %2, ptr noundef %3) #0 {
  %5 = alloca i32, align 4
  %6 = alloca ptr, align 8
  %7 = alloca i32, align 4
  %8 = alloca i32, align 4
  %9 = alloca ptr, align 8
  %10 = alloca i64, align 8
  %11 = alloca i32, align 4
  store ptr %0, ptr %6, align 8, !tbaa !6
  store i32 %1, ptr %7, align 4, !tbaa !11
  store i32 %2, ptr %8, align 4, !tbaa !11
  store ptr %3, ptr %9, align 8, !tbaa !18
  %12 = load ptr, ptr %6, align 8, !tbaa !6
  %13 = icmp ne ptr %12, null
  br i1 %13, label %14, label %17

14:                                               ; preds = %4
  %15 = load ptr, ptr %9, align 8, !tbaa !18
  %16 = icmp ne ptr %15, null
  br i1 %16, label %18, label %17

17:                                               ; preds = %14, %4
  store i32 0, ptr %5, align 4
  br label %33

18:                                               ; preds = %14
  call void @llvm.lifetime.start.p0(i64 8, ptr %10) #7
  %19 = load ptr, ptr %9, align 8, !tbaa !18
  %20 = call i64 @strlen(ptr noundef %19) #8
  store i64 %20, ptr %10, align 8, !tbaa !13
  %21 = load i64, ptr %10, align 8, !tbaa !13
  %22 = load i32, ptr %7, align 4, !tbaa !11
  %23 = sext i32 %22 to i64
  %24 = icmp uge i64 %21, %23
  br i1 %24, label %25, label %26

25:                                               ; preds = %18
  store i32 0, ptr %5, align 4
  store i32 1, ptr %11, align 4
  br label %32

26:                                               ; preds = %18
  %27 = load ptr, ptr %6, align 8, !tbaa !6
  %28 = load ptr, ptr %9, align 8, !tbaa !18
  %29 = call ptr @strcpy(ptr noundef %27, ptr noundef %28) #7
  %30 = load i64, ptr %10, align 8, !tbaa !13
  %31 = trunc i64 %30 to i32
  store i32 %31, ptr %5, align 4
  store i32 1, ptr %11, align 4
  br label %32

32:                                               ; preds = %26, %25
  call void @llvm.lifetime.end.p0(i64 8, ptr %10) #7
  br label %33

33:                                               ; preds = %32, %17
  %34 = load i32, ptr %5, align 4
  ret i32 %34
}