; Function Attrs: mustprogress nofree nounwind willreturn memory(argmem: readwrite) uwtable
define hidden i32 @PEM_def_callback(ptr noundef %0, i32 noundef %1, i32 %2, ptr noundef readonly captures(address_is_null) %3) local_unnamed_addr #6 {
  %5 = icmp ne ptr %0, null
  %6 = icmp ne ptr %3, null
  %or.cond = and i1 %5, %6
  br i1 %or.cond, label %7, label %13

7:                                                ; preds = %4
  %8 = tail call i64 @strlen(ptr noundef nonnull dereferenceable(1) %3) #13
  %9 = sext i32 %1 to i64
  %.not = icmp ult i64 %8, %9
  br i1 %.not, label %10, label %13

10:                                               ; preds = %7
  %11 = tail call ptr @strcpy(ptr noundef nonnull dereferenceable(1) %0, ptr noundef nonnull dereferenceable(1) %3) #12
  %12 = trunc i64 %8 to i32
  br label %13

13:                                               ; preds = %10, %7, %4
  %.0 = phi i32 [ 0, %4 ], [ %12, %10 ], [ 0, %7 ]
  ret i32 %.0
}